; Function Attrs: mustprogress nofree norecurse nosync nounwind willreturn memory(argmem: readwrite) uwtable
define void @_ZN6icu_7524FCDUTF8CollationIterator15switchToForwardEv(ptr nocapture noundef nonnull align 8 dereferenceable(496) %this) local_unnamed_addr #8 align 2 {
entry:
  %state = getelementptr inbounds i8, ptr %this, i64 408
  %0 = load i32, ptr %state, align 8
  switch i32 %0, label %if.else11 [
    i32 1, label %if.then
    i32 2, label %if.end17
  ]

if.then:                                          ; preds = %entry
  %pos = getelementptr inbounds i8, ptr %this, i64 400
  %1 = load i32, ptr %pos, align 8
  %start = getelementptr inbounds i8, ptr %this, i64 412
  store i32 %1, ptr %start, align 4
  %limit = getelementptr inbounds i8, ptr %this, i64 416
  %2 = load i32, ptr %limit, align 8
  %cmp3 = icmp eq i32 %1, %2
  %. = select i1 %cmp3, i32 0, i32 2
  br label %if.end17

if.else11:                                        ; preds = %entry
  %limit12 = getelementptr inbounds i8, ptr %this, i64 416
  %3 = load i32, ptr %limit12, align 8
  %pos13 = getelementptr inbounds i8, ptr %this, i64 400
  store i32 %3, ptr %pos13, align 8
  %start14 = getelementptr inbounds i8, ptr %this, i64 412
  store i32 %3, ptr %start14, align 4
  br label %if.end17

if.end17:                                         ; preds = %if.else11, %entry, %if.then
  %.sink = phi i32 [ %., %if.then ], [ 0, %entry ], [ 0, %if.else11 ]
  store i32 %.sink, ptr %state, align 8
  ret void
}